; Function Attrs: mustprogress uwtable
define noundef range(i32 -1, 1) i32 @_ZN3zmq14session_base_t13write_zap_msgEPNS_5msg_tE(ptr noundef nonnull readonly align 8 captures(none) dereferenceable(1624) %0, ptr noundef %1) local_unnamed_addr #0 align 2 {
  %3 = getelementptr inbounds nuw i8, ptr %0, i64 1488
  %4 = load ptr, ptr %3, align 8, !tbaa !103
  %5 = icmp eq ptr %4, null
  br i1 %5, label %8, label %6

6:                                                ; preds = %2
  %7 = tail call noundef zeroext i1 @_ZN3zmq6pipe_t5writeEPKNS_5msg_tE(ptr noundef nonnull align 8 dereferenceable(328) %4, ptr noundef %1)
  br i1 %7, label %10, label %8

8:                                                ; preds = %6, %2
  %9 = tail call ptr @__errno_location() #26
  store i32 107, ptr %9, align 4, !tbaa !51
  br label %26

10:                                               ; preds = %6
  %11 = tail call noundef zeroext i8 @_ZNK3zmq5msg_t5flagsEv(ptr noundef nonnull align 8 dereferenceable(64) %1)
  %12 = and i8 %11, 1
  %13 = icmp eq i8 %12, 0
  br i1 %13, label %14, label %16

14:                                               ; preds = %10
  %15 = load ptr, ptr %3, align 8, !tbaa !103
  tail call void @_ZN3zmq6pipe_t5flushEv(ptr noundef nonnull align 8 dereferenceable(328) %15)
  br label %16

16:                                               ; preds = %14, %10
  %17 = tail call noundef i32 @_ZN3zmq5msg_t4initEv(ptr noundef nonnull align 8 dereferenceable(64) %1)
  %.not = icmp eq i32 %17, 0
  br i1 %.not, label %26, label %18, !prof !102

18:                                               ; preds = %16
  %19 = tail call ptr @__errno_location() #26
  %20 = load i32, ptr %19, align 4, !tbaa !51
  %21 = tail call ptr @strerror(i32 noundef %20) #29
  %22 = load ptr, ptr @stderr, align 8, !tbaa !52
  %23 = tail call i32 (ptr, ptr, ...) @fprintf(ptr noundef %22, ptr noundef nonnull @.str.8, ptr noundef %21, ptr noundef nonnull @.str.1, i32 noundef 198) #27
  %24 = load ptr, ptr @stderr, align 8, !tbaa !52
  %25 = tail call i32 @fflush(ptr noundef %24)
  tail call void @_ZN3zmq9zmq_abortEPKc(ptr noundef %21)
  br label %26

26:                                               ; preds = %16, %18, %8
  %.0 = phi i32 [ -1, %8 ], [ 0, %18 ], [ 0, %16 ]
  ret i32 %.0
}